target datalayout = "e-m:e-p270:32:32-p271:32:32-p272:64:64-i64:64-i128:128-f80:128-n8:16:32:64-S128"
target triple = "x86_64-pc-linux-gnu"

%struct.bloom_filter = type { ptr, i64, i32, ptr }
%struct.bloom_filter_settings = type { i32, i32, i32, i32 }
%struct.bloom_key = type { ptr }

; Function Attrs: inlinehint nounwind uwtable
define internal zeroext i8 @get_bitmask(i32 noundef %0) #2 {
  %2 = alloca i32, align 4
  store i32 %0, ptr %2, align 4, !tbaa !11
  %3 = load i32, ptr %2, align 4, !tbaa !11
  %4 = and i32 %3, 7
  %5 = shl i32 1, %4
  %6 = trunc i32 %5 to i8
  ret i8 %6
}

; Function Attrs: nounwind uwtable
define dso_local void @add_key_to_filter(ptr noundef %0, ptr noundef %1, ptr noundef %2) #0 {
  %4 = alloca ptr, align 8
  %5 = alloca ptr, align 8
  %6 = alloca ptr, align 8
  %7 = alloca i32, align 4
  %8 = alloca i64, align 8
  %9 = alloca i64, align 8
  %10 = alloca i64, align 8
  store ptr %0, ptr %4, align 8, !tbaa !42
  store ptr %1, ptr %5, align 8, !tbaa !9
  store ptr %2, ptr %6, align 8, !tbaa !44
  call void @llvm.lifetime.start.p0(i64 4, ptr %7) #8
  call void @llvm.lifetime.start.p0(i64 8, ptr %8) #8
  %11 = load ptr, ptr %5, align 8, !tbaa !9
  %12 = getelementptr inbounds nuw %struct.bloom_filter, ptr %11, i32 0, i32 1
  %13 = load i64, ptr %12, align 8, !tbaa !27
  %14 = mul i64 %13, 8
  store i64 %14, ptr %8, align 8, !tbaa !40
  store i32 0, ptr %7, align 4, !tbaa !11
  br label %15

15:                                               ; preds = %47, %3
  %16 = load i32, ptr %7, align 4, !tbaa !11
  %17 = load ptr, ptr %6, align 8, !tbaa !44
  %18 = getelementptr inbounds nuw %struct.bloom_filter_settings, ptr %17, i32 0, i32 1
  %19 = load i32, ptr %18, align 4, !tbaa !45
  %20 = icmp ult i32 %16, %19
  br i1 %20, label %21, label %50

21:                                               ; preds = %15
  call void @llvm.lifetime.start.p0(i64 8, ptr %9) #8
  %22 = load ptr, ptr %4, align 8, !tbaa !42
  %23 = getelementptr inbounds nuw %struct.bloom_key, ptr %22, i32 0, i32 0
  %24 = load ptr, ptr %23, align 8, !tbaa !46
  %25 = load i32, ptr %7, align 4, !tbaa !11
  %26 = sext i32 %25 to i64
  %27 = getelementptr inbounds i32, ptr %24, i64 %26
  %28 = load i32, ptr %27, align 4, !tbaa !11
  %29 = zext i32 %28 to i64
  %30 = load i64, ptr %8, align 8, !tbaa !40
  %31 = urem i64 %29, %30
  store i64 %31, ptr %9, align 8, !tbaa !40
  call void @llvm.lifetime.start.p0(i64 8, ptr %10) #8
  %32 = load i64, ptr %9, align 8, !tbaa !40
  %33 = udiv i64 %32, 8
  store i64 %33, ptr %10, align 8, !tbaa !40
  %34 = load i64, ptr %9, align 8, !tbaa !40
  %35 = trunc i64 %34 to i32
  %36 = call zeroext i8 @get_bitmask(i32 noundef %35)
  %37 = zext i8 %36 to i32
  %38 = load ptr, ptr %5, align 8, !tbaa !9
  %39 = getelementptr inbounds nuw %struct.bloom_filter, ptr %38, i32 0, i32 0
  %40 = load ptr, ptr %39, align 8, !tbaa !30
  %41 = load i64, ptr %10, align 8, !tbaa !40
  %42 = getelementptr inbounds nuw i8, ptr %40, i64 %41
  %43 = load i8, ptr %42, align 1, !tbaa !38
  %44 = zext i8 %43 to i32
  %45 = or i32 %44, %37
  %46 = trunc i32 %45 to i8
  store i8 %46, ptr %42, align 1, !tbaa !38
  call void @llvm.lifetime.end.p0(i64 8, ptr %10) #8
  call void @llvm.lifetime.end.p0(i64 8, ptr %9) #8
  br label %47

47:                                               ; preds = %21
  %48 = load i32, ptr %7, align 4, !tbaa !11
  %49 = add nsw i32 %48, 1
  store i32 %49, ptr %7, align 4, !tbaa !11
  br label %15, !llvm.loop !50

50:                                               ; preds = %15
  call void @llvm.lifetime.end.p0(i64 8, ptr %8) #8
  call void @llvm.lifetime.end.p0(i64 4, ptr %7) #8
  ret void
}