; Function Attrs: nofree norecurse nosync nounwind memory(readwrite, inaccessiblemem: none) uwtable
define dso_local void @add_key_to_filter(ptr noundef readonly captures(none) %0, ptr noundef readonly captures(none) %1, ptr noundef readonly captures(none) %2) local_unnamed_addr #6 {
  %4 = getelementptr inbounds nuw i8, ptr %1, i64 8
  %5 = load i64, ptr %4, align 8, !tbaa !25
  %6 = shl i64 %5, 3
  %7 = getelementptr inbounds nuw i8, ptr %2, i64 4
  %8 = load i32, ptr %7, align 4, !tbaa !35
  %.not = icmp eq i32 %8, 0
  br i1 %.not, label %._crit_edge, label %.lr.ph

.lr.ph:                                           ; preds = %3, %.lr.ph
  %indvars.iv = phi i64 [ %indvars.iv.next, %.lr.ph ], [ 0, %3 ]
  %9 = load ptr, ptr %0, align 8, !tbaa !36
  %10 = getelementptr inbounds nuw i32, ptr %9, i64 %indvars.iv
  %11 = load i32, ptr %10, align 4, !tbaa !38
  %12 = zext i32 %11 to i64
  %13 = urem i64 %12, %6
  %14 = lshr i64 %13, 3
  %15 = trunc i64 %13 to i8
  %16 = and i8 %15, 7
  %17 = shl nuw i8 1, %16
  %18 = load ptr, ptr %1, align 8, !tbaa !28
  %19 = getelementptr inbounds nuw i8, ptr %18, i64 %14
  %20 = load i8, ptr %19, align 1, !tbaa !22
  %21 = or i8 %17, %20
  store i8 %21, ptr %19, align 1, !tbaa !22
  %indvars.iv.next = add nuw nsw i64 %indvars.iv, 1
  %22 = load i32, ptr %7, align 4, !tbaa !35
  %23 = zext i32 %22 to i64
  %24 = icmp samesign ult i64 %indvars.iv.next, %23
  br i1 %24, label %.lr.ph, label %._crit_edge, !llvm.loop !41

._crit_edge:                                      ; preds = %.lr.ph, %3
  ret void
}